; ModuleID = 'source-C-CXX/26/1375.c'
source_filename = "source-C-CXX/26/1375.c"
target datalayout = "e-m:e-p270:32:32-p271:32:32-p272:64:64-i64:64-f80:128-n8:16:32:64-S128"
target triple = "x86_64-pc-linux-gnu"

@.str = private unnamed_addr constant [3 x i8] c"%d\00", align 1
@.str.1 = private unnamed_addr constant [10 x i8] c"%lf%lf%lf\00", align 1
@.str.2 = private unnamed_addr constant [33 x i8] c"x1=%.5lf+%.5lfi;x2=%.5lf-%.5lfi\0A\00", align 1
@.str.3 = private unnamed_addr constant [13 x i8] c"x1=x2=%.5lf\0A\00", align 1
@.str.4 = private unnamed_addr constant [19 x i8] c"x1=%.5lf;x2=%.5lf\0A\00", align 1

; Function Attrs: nofree nounwind sspstrong uwtable
define dso_local i32 @main() local_unnamed_addr #0 {
  %1 = alloca i32, align 4
  %2 = alloca [15 x double], align 16
  %3 = alloca [15 x double], align 16
  %4 = alloca [15 x double], align 16
  %5 = bitcast i32* %1 to i8*
  call void @llvm.lifetime.start.p0i8(i64 4, i8* nonnull %5) #4
  %6 = bitcast [15 x double]* %2 to i8*
  call void @llvm.lifetime.start.p0i8(i64 120, i8* nonnull %6) #4
  %7 = bitcast [15 x double]* %3 to i8*
  call void @llvm.lifetime.start.p0i8(i64 120, i8* nonnull %7) #4
  %8 = bitcast [15 x double]* %4 to i8*
  call void @llvm.lifetime.start.p0i8(i64 120, i8* nonnull %8) #4
  %9 = call i32 (i8*, ...) @__isoc99_scanf(i8* getelementptr inbounds ([3 x i8], [3 x i8]* @.str, i64 0, i64 0), i32* nonnull %1)
  %10 = load i32, i32* %1, align 4, !tbaa !5
  %11 = icmp sgt i32 %10, 0
  br i1 %11, label %14, label %78

12:                                               ; preds = %14
  %13 = icmp sgt i32 %21, 0
  br i1 %13, label %24, label %78

14:                                               ; preds = %0, %14
  %15 = phi i64 [ %20, %14 ], [ 0, %0 ]
  %16 = getelementptr inbounds [15 x double], [15 x double]* %2, i64 0, i64 %15
  %17 = getelementptr inbounds [15 x double], [15 x double]* %3, i64 0, i64 %15
  %18 = getelementptr inbounds [15 x double], [15 x double]* %4, i64 0, i64 %15
  %19 = call i32 (i8*, ...) @__isoc99_scanf(i8* getelementptr inbounds ([10 x i8], [10 x i8]* @.str.1, i64 0, i64 0), double* nonnull %16, double* nonnull %17, double* nonnull %18)
  %20 = add nuw nsw i64 %15, 1
  %21 = load i32, i32* %1, align 4, !tbaa !5
  %22 = sext i32 %21 to i64
  %23 = icmp slt i64 %20, %22
  br i1 %23, label %14, label %12, !llvm.loop !9

24:                                               ; preds = %12, %73
  %25 = phi i64 [ %74, %73 ], [ 0, %12 ]
  %26 = getelementptr inbounds [15 x double], [15 x double]* %3, i64 0, i64 %25
  %27 = load double, double* %26, align 8, !tbaa !11
  %28 = fmul double %27, %27
  %29 = getelementptr inbounds [15 x double], [15 x double]* %2, i64 0, i64 %25
  %30 = load double, double* %29, align 8, !tbaa !11
  %31 = fmul double %30, 4.000000e+00
  %32 = getelementptr inbounds [15 x double], [15 x double]* %4, i64 0, i64 %25
  %33 = load double, double* %32, align 8, !tbaa !11
  %34 = fmul double %31, %33
  %35 = fsub double %28, %34
  %36 = fcmp olt double %35, 0.000000e+00
  br i1 %36, label %37, label %52

37:                                               ; preds = %24
  %38 = fneg double %35
  %39 = call double @sqrt(double %38) #4
  %40 = load double, double* %29, align 8, !tbaa !11
  %41 = fmul double %40, 2.000000e+00
  %42 = fdiv double %39, %41
  %43 = load double, double* %26, align 8, !tbaa !11
  %44 = fcmp oeq double %43, 0.000000e+00
  br i1 %44, label %45, label %48

45:                                               ; preds = %37
  %46 = fdiv double %43, %41
  %47 = call i32 (i8*, ...) @printf(i8* nonnull dereferenceable(1) getelementptr inbounds ([33 x i8], [33 x i8]* @.str.2, i64 0, i64 0), double %46, double %42, double %46, double %42)
  br label %73

48:                                               ; preds = %37
  %49 = fneg double %43
  %50 = fdiv double %49, %41
  %51 = call i32 (i8*, ...) @printf(i8* nonnull dereferenceable(1) getelementptr inbounds ([33 x i8], [33 x i8]* @.str.2, i64 0, i64 0), double %50, double %42, double %50, double %42)
  br label %73

52:                                               ; preds = %24
  %53 = fcmp oeq double %35, 0.000000e+00
  br i1 %53, label %54, label %59

54:                                               ; preds = %52
  %55 = fneg double %27
  %56 = fmul double %30, 2.000000e+00
  %57 = fdiv double %55, %56
  %58 = call i32 (i8*, ...) @printf(i8* nonnull dereferenceable(1) getelementptr inbounds ([13 x i8], [13 x i8]* @.str.3, i64 0, i64 0), double %57)
  br label %73

59:                                               ; preds = %52
  %60 = call double @sqrt(double %35) #4
  %61 = fsub double %60, %27
  %62 = load double, double* %29, align 8, !tbaa !11
  %63 = fmul double %62, 2.000000e+00
  %64 = fdiv double %61, %63
  %65 = load double, double* %26, align 8, !tbaa !11
  %66 = fneg double %65
  %67 = call double @sqrt(double %35) #4
  %68 = fsub double %66, %67
  %69 = load double, double* %29, align 8, !tbaa !11
  %70 = fmul double %69, 2.000000e+00
  %71 = fdiv double %68, %70
  %72 = call i32 (i8*, ...) @printf(i8* nonnull dereferenceable(1) getelementptr inbounds ([19 x i8], [19 x i8]* @.str.4, i64 0, i64 0), double %64, double %71)
  br label %73

73:                                               ; preds = %48, %45, %59, %54
  %74 = add nuw nsw i64 %25, 1
  %75 = load i32, i32* %1, align 4, !tbaa !5
  %76 = sext i32 %75 to i64
  %77 = icmp slt i64 %74, %76
  br i1 %77, label %24, label %78, !llvm.loop !13

78:                                               ; preds = %73, %0, %12
  call void @llvm.lifetime.end.p0i8(i64 120, i8* nonnull %8) #4
  call void @llvm.lifetime.end.p0i8(i64 120, i8* nonnull %7) #4
  call void @llvm.lifetime.end.p0i8(i64 120, i8* nonnull %6) #4
  call void @llvm.lifetime.end.p0i8(i64 4, i8* nonnull %5) #4
  ret i32 0
}

; Function Attrs: argmemonly mustprogress nofree nosync nounwind willreturn
declare void @llvm.lifetime.start.p0i8(i64 immarg, i8* nocapture) #1

; Function Attrs: nofree nounwind
declare noundef i32 @__isoc99_scanf(i8* nocapture noundef readonly, ...) local_unnamed_addr #2

; Function Attrs: mustprogress nofree nounwind willreturn
declare double @sqrt(double) local_unnamed_addr #3

; Function Attrs: nofree nounwind
declare noundef i32 @printf(i8* nocapture noundef readonly, ...) local_unnamed_addr #2

; Function Attrs: argmemonly mustprogress nofree nosync nounwind willreturn
declare void @llvm.lifetime.end.p0i8(i64 immarg, i8* nocapture) #1


!llvm.module.flags = !{!0, !1, !2, !3}
!llvm.ident = !{!4}

!0 = !{i32 1, !"wchar_size", i32 4}
!1 = !{i32 7, !"PIC Level", i32 2}
!2 = !{i32 7, !"PIE Level", i32 2}
!3 = !{i32 7, !"uwtable", i32 1}
!4 = !{!"clang version 13.0.0"}
!5 = !{!6, !6, i64 0}
!6 = !{!"int", !7, i64 0}
!7 = !{!"omnipotent char", !8, i64 0}
!8 = !{!"Simple C/C++ TBAA"}
!9 = distinct !{!9, !10}
!10 = !{!"llvm.loop.mustprogress"}
!11 = !{!12, !12, i64 0}
!12 = !{!"double", !7, i64 0}
!13 = distinct !{!13, !10}
